target datalayout = "e-m:e-p270:32:32-p271:32:32-p272:64:64-i64:64-i128:128-f80:128-n8:16:32:64-S128"
target triple = "x86_64-pc-linux-gnu"

%struct.BlockDirtyBitmapState = type { ptr, ptr, ptr, i8 }

; Function Attrs: nounwind sspstrong uwtable
define internal void @block_dirty_bitmap_enable_abort(ptr noundef %0) #0 {
  %2 = alloca ptr, align 8
  %3 = alloca ptr, align 8
  store ptr %0, ptr %2, align 8
  call void @llvm.lifetime.start.p0(i64 8, ptr %3) #16
  %4 = load ptr, ptr %2, align 8
  store ptr %4, ptr %3, align 8
  %5 = load ptr, ptr %3, align 8
  %6 = getelementptr inbounds nuw %struct.BlockDirtyBitmapState, ptr %5, i32 0, i32 3
  %7 = load i8, ptr %6, align 8, !range !7, !noundef !8
  %8 = trunc i8 %7 to i1
  br i1 %8, label %13, label %9

9:                                                ; preds = %1
  %10 = load ptr, ptr %3, align 8
  %11 = getelementptr inbounds nuw %struct.BlockDirtyBitmapState, ptr %10, i32 0, i32 0
  %12 = load ptr, ptr %11, align 8
  call void @bdrv_disable_dirty_bitmap(ptr noundef %12)
  br label %13

13:                                               ; preds = %9, %1
  call void @llvm.lifetime.end.p0(i64 8, ptr %3) #16
  ret void
}